target datalayout = "e-m:e-p270:32:32-p271:32:32-p272:64:64-i64:64-i128:128-f80:128-n8:16:32:64-S128"
target triple = "x86_64-pc-linux-gnu"

%"class.std::filesystem::__cxx11::path" = type { %"class.std::__cxx11::basic_string", %"struct.std::filesystem::__cxx11::path::_List" }
%"class.std::__cxx11::basic_string" = type { %"struct.std::__cxx11::basic_string<char>::_Alloc_hider", i64, %union.anon }
%"struct.std::__cxx11::basic_string<char>::_Alloc_hider" = type { ptr }
%union.anon = type { i64, [8 x i8] }
%"struct.std::filesystem::__cxx11::path::_List" = type { %"class.std::unique_ptr" }
%"class.std::unique_ptr" = type { %"struct.std::__uniq_ptr_data" }
%"struct.std::__uniq_ptr_data" = type { %"class.std::__uniq_ptr_impl" }
%"class.std::__uniq_ptr_impl" = type { %"class.std::tuple" }
%"class.std::tuple" = type { %"struct.std::_Tuple_impl" }
%"struct.std::_Tuple_impl" = type { %"struct.std::_Head_base.1" }
%"struct.std::_Head_base.1" = type { ptr }

@.str.1 = private unnamed_addr constant [122 x i8] c"generated/home/dtcxzyw/WorkSpace/Projects/compilers/llvm-opt-benchmark/bench/gromacs/gromacs/src/gromacs/fileio/xtcio.cpp\00", align 1
@debug = external global ptr, align 8
@.str.4 = private unnamed_addr constant [62 x i8] c"\0AXTC error: read/write of %s failed, source file %s, line %d\0A\00", align 1
@.str.5 = private unnamed_addr constant [4 x i8] c"box\00", align 1
@.str.6 = private unnamed_addr constant [2 x i8] c"x\00", align 1
@.str.7 = private unnamed_addr constant [3 x i8] c"*x\00", align 1
@.str.8 = private unnamed_addr constant [61 x i8] c"Magic Number Error in XTC file (read %d, should be %d or %d)\00", align 1

; Function Attrs: mustprogress nounwind uwtable
define internal noundef i32 @_ZL9xtc_checkPKcbS0_i(ptr noundef %0, i1 noundef zeroext %1, ptr noundef %2, i32 noundef %3) #2 {
  %5 = alloca i32, align 4
  %6 = alloca ptr, align 8
  %7 = alloca i8, align 1
  %8 = alloca ptr, align 8
  %9 = alloca i32, align 4
  store ptr %0, ptr %6, align 8
  %10 = zext i1 %1 to i8
  store i8 %10, ptr %7, align 1
  store ptr %2, ptr %8, align 8
  store i32 %3, ptr %9, align 4
  %11 = load i8, ptr %7, align 1
  %12 = trunc i8 %11 to i1
  br i1 %12, label %23, label %13

13:                                               ; preds = %4
  %14 = load ptr, ptr @debug, align 8
  %15 = icmp ne ptr %14, null
  br i1 %15, label %16, label %22

16:                                               ; preds = %13
  %17 = load ptr, ptr @debug, align 8
  %18 = load ptr, ptr %6, align 8
  %19 = load ptr, ptr %8, align 8
  %20 = load i32, ptr %9, align 4
  %21 = call i32 (ptr, ptr, ...) @fprintf(ptr noundef %17, ptr noundef @.str.4, ptr noundef %18, ptr noundef %19, i32 noundef %20) #7
  br label %22

22:                                               ; preds = %16, %13
  store i32 0, ptr %5, align 4
  br label %24

23:                                               ; preds = %4
  store i32 1, ptr %5, align 4
  br label %24

24:                                               ; preds = %23, %22
  %25 = load i32, ptr %5, align 4
  ret i32 %25
}

; Function Attrs: mustprogress uwtable
define internal noundef i32 @_ZL7xdr_r2fP3XDRPfb(ptr noundef %0, ptr noundef %1, i1 noundef zeroext %2) #0 {
  %4 = alloca ptr, align 8
  %5 = alloca ptr, align 8
  %6 = alloca i8, align 1
  store ptr %0, ptr %4, align 8
  store ptr %1, ptr %5, align 8
  %7 = zext i1 %2 to i8
  store i8 %7, ptr %6, align 1
  %8 = load ptr, ptr %4, align 8
  %9 = load ptr, ptr %5, align 8
  %10 = call noundef i32 @_Z9xdr_floatP3XDRPf(ptr noundef %8, ptr noundef %9)
  ret i32 %10
}

; Function Attrs: mustprogress uwtable
define internal noundef i32 @_ZL9xtc_coordP3XDRPiPA3_fS3_Pfib(ptr noundef %0, ptr noundef %1, ptr noundef %2, ptr noundef %3, ptr noundef %4, i32 noundef %5, i1 noundef zeroext %6) #0 {
  %8 = alloca i32, align 4
  %9 = alloca ptr, align 8
  %10 = alloca ptr, align 8
  %11 = alloca ptr, align 8
  %12 = alloca ptr, align 8
  %13 = alloca ptr, align 8
  %14 = alloca i32, align 4
  %15 = alloca i8, align 1
  %16 = alloca i32, align 4
  %17 = alloca i32, align 4
  %18 = alloca i32, align 4
  store ptr %0, ptr %9, align 8
  store ptr %1, ptr %10, align 8
  store ptr %2, ptr %11, align 8
  store ptr %3, ptr %12, align 8
  store ptr %4, ptr %13, align 8
  store i32 %5, ptr %14, align 4
  %19 = zext i1 %6 to i8
  store i8 %19, ptr %15, align 1
  store i32 1, ptr %18, align 4
  store i32 0, ptr %16, align 4
  br label %20

20:                                               ; preds = %55, %7
  %21 = load i32, ptr %16, align 4
  %22 = icmp slt i32 %21, 3
  br i1 %22, label %23, label %26

23:                                               ; preds = %20
  %24 = load i32, ptr %18, align 4
  %25 = icmp ne i32 %24, 0
  br label %26

26:                                               ; preds = %23, %20
  %27 = phi i1 [ false, %20 ], [ %25, %23 ]
  br i1 %27, label %28, label %58

28:                                               ; preds = %26
  store i32 0, ptr %17, align 4
  br label %29

29:                                               ; preds = %51, %28
  %30 = load i32, ptr %17, align 4
  %31 = icmp slt i32 %30, 3
  br i1 %31, label %32, label %35

32:                                               ; preds = %29
  %33 = load i32, ptr %18, align 4
  %34 = icmp ne i32 %33, 0
  br label %35

35:                                               ; preds = %32, %29
  %36 = phi i1 [ false, %29 ], [ %34, %32 ]
  br i1 %36, label %37, label %54

37:                                               ; preds = %35
  %38 = load ptr, ptr %9, align 8
  %39 = load ptr, ptr %11, align 8
  %40 = load i32, ptr %16, align 4
  %41 = sext i32 %40 to i64
  %42 = getelementptr inbounds [3 x float], ptr %39, i64 %41
  %43 = load i32, ptr %17, align 4
  %44 = sext i32 %43 to i64
  %45 = getelementptr inbounds [3 x float], ptr %42, i64 0, i64 %44
  %46 = load i8, ptr %15, align 1
  %47 = trunc i8 %46 to i1
  %48 = call noundef i32 @_ZL7xdr_r2fP3XDRPfb(ptr noundef %38, ptr noundef %45, i1 noundef zeroext %47)
  %49 = icmp ne i32 %48, 0
  %50 = call noundef i32 @_ZL9xtc_checkPKcbS0_i(ptr noundef @.str.5, i1 noundef zeroext %49, ptr noundef @.str.1, i32 noundef 150)
  store i32 %50, ptr %18, align 4
  br label %51

51:                                               ; preds = %37
  %52 = load i32, ptr %17, align 4
  %53 = add nsw i32 %52, 1
  store i32 %53, ptr %17, align 4
  br label %29, !llvm.loop !5

54:                                               ; preds = %35
  br label %55

55:                                               ; preds = %54
  %56 = load i32, ptr %16, align 4
  %57 = add nsw i32 %56, 1
  store i32 %57, ptr %16, align 4
  br label %20, !llvm.loop !7

58:                                               ; preds = %26
  %59 = load i32, ptr %18, align 4
  %60 = icmp ne i32 %59, 0
  br i1 %60, label %63, label %61

61:                                               ; preds = %58
  %62 = load i32, ptr %18, align 4
  store i32 %62, ptr %8, align 4
  br label %75

63:                                               ; preds = %58
  %64 = load ptr, ptr %9, align 8
  %65 = load ptr, ptr %12, align 8
  %66 = getelementptr inbounds [3 x float], ptr %65, i64 0
  %67 = getelementptr inbounds [3 x float], ptr %66, i64 0, i64 0
  %68 = load ptr, ptr %10, align 8
  %69 = load ptr, ptr %13, align 8
  %70 = load i32, ptr %14, align 4
  %71 = call noundef i32 @_Z11xdr3dfcoordP3XDRPfPiS1_i(ptr noundef %64, ptr noundef %67, ptr noundef %68, ptr noundef %69, i32 noundef %70)
  %72 = icmp ne i32 %71, 0
  %73 = call noundef i32 @_ZL9xtc_checkPKcbS0_i(ptr noundef @.str.6, i1 noundef zeroext %72, ptr noundef @.str.1, i32 noundef 189)
  store i32 %73, ptr %18, align 4
  %74 = load i32, ptr %18, align 4
  store i32 %74, ptr %8, align 4
  br label %75

75:                                               ; preds = %63, %61
  %76 = load i32, ptr %8, align 4
  ret i32 %76
}

; Function Attrs: mustprogress uwtable
define internal void @_ZL13gmx_snew_implIA3_fEvPKcS2_iRPT_m(ptr noundef %0, ptr noundef %1, i32 noundef %2, ptr noundef nonnull align 8 dereferenceable(8) %3, i64 noundef %4) #0 {
  %6 = alloca ptr, align 8
  %7 = alloca ptr, align 8
  %8 = alloca i32, align 4
  %9 = alloca ptr, align 8
  %10 = alloca i64, align 8
  store ptr %0, ptr %6, align 8
  store ptr %1, ptr %7, align 8
  store i32 %2, ptr %8, align 4
  store ptr %3, ptr %9, align 8
  store i64 %4, ptr %10, align 8
  %11 = load ptr, ptr %6, align 8
  %12 = load ptr, ptr %7, align 8
  %13 = load i32, ptr %8, align 4
  %14 = load i64, ptr %10, align 8
  %15 = call noundef ptr @_Z11save_callocPKcS0_imm(ptr noundef %11, ptr noundef %12, i32 noundef %13, i64 noundef %14, i64 noundef 12)
  %16 = load ptr, ptr %9, align 8
  store ptr %15, ptr %16, align 8
  ret void
}

; Function Attrs: mustprogress uwtable
define internal void @_ZL15check_xtc_magici(i32 noundef %0) #0 personality ptr @__gxx_personality_v0 {
  %2 = alloca i32, align 4
  %3 = alloca %"class.std::filesystem::__cxx11::path", align 8
  %4 = alloca ptr, align 8
  %5 = alloca i32, align 4
  store i32 %0, ptr %2, align 4
  %6 = load i32, ptr %2, align 4
  %7 = icmp ne i32 %6, 1995
  br i1 %7, label %8, label %18

8:                                                ; preds = %1
  %9 = load i32, ptr %2, align 4
  %10 = icmp ne i32 %9, 2023
  br i1 %10, label %11, label %18

11:                                               ; preds = %8
  call void @_ZNSt10filesystem7__cxx114pathC2IA122_cS1_EERKT_NS1_6formatE(ptr noundef nonnull align 8 dereferenceable(40) %3, ptr noundef nonnull align 1 dereferenceable(122) @.str.1, i8 noundef zeroext 2)
  %12 = load i32, ptr %2, align 4
  invoke void (i32, ptr, i32, ptr, ...) @_Z9gmx_fataliRKNSt10filesystem7__cxx114pathEiPKcz(i32 noundef 0, ptr noundef nonnull align 8 dereferenceable(40) %3, i32 noundef 85, ptr noundef @.str.8, i32 noundef %12, i32 noundef 1995, i32 noundef 2023) #8
          to label %13 unwind label %14

13:                                               ; preds = %11
  unreachable

14:                                               ; preds = %11
  %15 = landingpad { ptr, i32 }
          cleanup
  %16 = extractvalue { ptr, i32 } %15, 0
  store ptr %16, ptr %4, align 8
  %17 = extractvalue { ptr, i32 } %15, 1
  store i32 %17, ptr %5, align 4
  call void @_ZNSt10filesystem7__cxx114pathD2Ev(ptr noundef nonnull align 8 dereferenceable(40) %3) #7
  br label %19

18:                                               ; preds = %8, %1
  ret void

19:                                               ; preds = %14
  %20 = load ptr, ptr %4, align 8
  %21 = load i32, ptr %5, align 4
  %22 = insertvalue { ptr, i32 } poison, ptr %20, 0
  %23 = insertvalue { ptr, i32 } %22, i32 %21, 1
  resume { ptr, i32 } %23
}

; Function Attrs: mustprogress uwtable
define noundef i32 @_Z14read_first_xtcP8t_fileioPiPlPfPA3_fPS5_S3_Pb(ptr noundef %0, ptr noundef %1, ptr noundef %2, ptr noundef %3, ptr noundef %4, ptr noundef %5, ptr noundef %6, ptr noundef %7) #0 {
  %9 = alloca i32, align 4
  %10 = alloca ptr, align 8
  %11 = alloca ptr, align 8
  %12 = alloca ptr, align 8
  %13 = alloca ptr, align 8
  %14 = alloca ptr, align 8
  %15 = alloca ptr, align 8
  %16 = alloca ptr, align 8
  %17 = alloca ptr, align 8
  %18 = alloca i32, align 4
  %19 = alloca ptr, align 8
  store ptr %0, ptr %10, align 8
  store ptr %1, ptr %11, align 8
  store ptr %2, ptr %12, align 8
  store ptr %3, ptr %13, align 8
  store ptr %4, ptr %14, align 8
  store ptr %5, ptr %15, align 8
  store ptr %6, ptr %16, align 8
  store ptr %7, ptr %17, align 8
  %20 = load ptr, ptr %17, align 8
  store i8 1, ptr %20, align 1
  %21 = load ptr, ptr %10, align 8
  %22 = call noundef ptr @_Z14gmx_fio_getxdrP8t_fileio(ptr noundef %21)
  store ptr %22, ptr %19, align 8
  %23 = load ptr, ptr %19, align 8
  %24 = load ptr, ptr %11, align 8
  %25 = load ptr, ptr %12, align 8
  %26 = load ptr, ptr %13, align 8
  %27 = load ptr, ptr %17, align 8
  %28 = call noundef i32 @_ZL10xtc_headerP3XDRPiS1_PlPfbPb(ptr noundef %23, ptr noundef %18, ptr noundef %24, ptr noundef %25, ptr noundef %26, i1 noundef zeroext true, ptr noundef %27)
  %29 = icmp ne i32 %28, 0
  br i1 %29, label %31, label %30

30:                                               ; preds = %8
  store i32 0, ptr %9, align 4
  br label %52

31:                                               ; preds = %8
  %32 = load i32, ptr %18, align 4
  call void @_ZL15check_xtc_magici(i32 noundef %32)
  %33 = load ptr, ptr %15, align 8
  %34 = load ptr, ptr %11, align 8
  %35 = load i32, ptr %34, align 4
  %36 = sext i32 %35 to i64
  call void @_ZL13gmx_snew_implIA3_fEvPKcS2_iRPT_m(ptr noundef @.str.7, ptr noundef @.str.1, i32 noundef 252, ptr noundef nonnull align 8 dereferenceable(8) %33, i64 noundef %36)
  %37 = load ptr, ptr %19, align 8
  %38 = load ptr, ptr %11, align 8
  %39 = load ptr, ptr %14, align 8
  %40 = load ptr, ptr %15, align 8
  %41 = load ptr, ptr %40, align 8
  %42 = load ptr, ptr %16, align 8
  %43 = load i32, ptr %18, align 4
  %44 = call noundef i32 @_ZL9xtc_coordP3XDRPiPA3_fS3_Pfib(ptr noundef %37, ptr noundef %38, ptr noundef %39, ptr noundef %41, ptr noundef %42, i32 noundef %43, i1 noundef zeroext true)
  %45 = icmp ne i32 %44, 0
  %46 = load ptr, ptr %17, align 8
  %47 = zext i1 %45 to i8
  store i8 %47, ptr %46, align 1
  %48 = load ptr, ptr %17, align 8
  %49 = load i8, ptr %48, align 1
  %50 = trunc i8 %49 to i1
  %51 = zext i1 %50 to i32
  store i32 %51, ptr %9, align 4
  br label %52

52:                                               ; preds = %31, %30
  %53 = load i32, ptr %9, align 4
  ret i32 %53
}