; Function Attrs: mustprogress uwtable
define noundef i32 @_Z14read_first_xtcP8t_fileioPiPlPfPA3_fPS5_S3_Pb(ptr noundef %0, ptr noundef %1, ptr nocapture noundef %2, ptr noundef %3, ptr noundef %4, ptr nocapture noundef writeonly %5, ptr noundef %6, ptr nocapture noundef writeonly %7) local_unnamed_addr #0 personality ptr @__gxx_personality_v0 {
  %9 = alloca %"class.std::filesystem::__cxx11::path", align 8
  %10 = alloca i32, align 4
  store i8 1, ptr %7, align 1
  %11 = tail call noundef ptr @_Z14gmx_fio_getxdrP8t_fileio(ptr noundef %0)
  %12 = call fastcc noundef i32 @_ZL10xtc_headerP3XDRPiS1_PlPfbPb(ptr noundef %11, ptr noundef nonnull %10, ptr noundef %1, ptr noundef %2, ptr noundef %3, ptr noundef nonnull %7)
  %.not = icmp eq i32 %12, 0
  br i1 %.not, label %38, label %13

13:                                               ; preds = %8
  %14 = load i32, ptr %10, align 4
  call void @llvm.lifetime.start.p0(i64 40, ptr nonnull %9)
  switch i32 %14, label %15 [
    i32 2023, label %_ZL15check_xtc_magici.exit
    i32 1995, label %_ZL15check_xtc_magici.exit
  ]

15:                                               ; preds = %13
  call void @_ZNSt10filesystem7__cxx114pathC2IA122_cS1_EERKT_NS1_6formatE(ptr noundef nonnull align 8 dereferenceable(40) %9, ptr noundef nonnull align 1 dereferenceable(122) @.str.1, i8 noundef zeroext 2)
  invoke void (i32, ptr, i32, ptr, ...) @_Z9gmx_fataliRKNSt10filesystem7__cxx114pathEiPKcz(i32 noundef 0, ptr noundef nonnull align 8 dereferenceable(40) %9, i32 noundef 85, ptr noundef nonnull @.str.8, i32 noundef %14, i32 noundef 1995, i32 noundef 2023) #9
          to label %16 unwind label %17

16:                                               ; preds = %15
  unreachable

17:                                               ; preds = %15
  %18 = landingpad { ptr, i32 }
          cleanup
  call void @_ZNSt10filesystem7__cxx114pathD2Ev(ptr noundef nonnull align 8 dereferenceable(40) %9) #8
  resume { ptr, i32 } %18

_ZL15check_xtc_magici.exit:                       ; preds = %13, %13
  call void @llvm.lifetime.end.p0(i64 40, ptr nonnull %9)
  %19 = load i32, ptr %1, align 4
  %20 = sext i32 %19 to i64
  %21 = call noundef ptr @_Z11save_callocPKcS0_imm(ptr noundef nonnull @.str.7, ptr noundef nonnull @.str.1, i32 noundef 252, i64 noundef %20, i64 noundef 12)
  store ptr %21, ptr %5, align 8
  %22 = load i32, ptr %10, align 4
  br label %.preheader.i

.preheader.i:                                     ; preds = %30, %_ZL15check_xtc_magici.exit
  %indvars.iv29.i = phi i64 [ 0, %_ZL15check_xtc_magici.exit ], [ %indvars.iv.next30.i, %30 ]
  br label %23

23:                                               ; preds = %_ZL9xtc_checkPKcbS0_i.exit.i, %.preheader.i
  %indvars.iv.i = phi i64 [ 0, %.preheader.i ], [ %indvars.iv.next.i, %_ZL9xtc_checkPKcbS0_i.exit.i ]
  %24 = getelementptr inbounds [3 x float], ptr %4, i64 %indvars.iv29.i, i64 %indvars.iv.i
  %25 = call noundef i32 @_Z9xdr_floatP3XDRPf(ptr noundef %11, ptr noundef %24)
  %.not25.i.not = icmp eq i32 %25, 0
  br i1 %.not25.i.not, label %26, label %_ZL9xtc_checkPKcbS0_i.exit.i

26:                                               ; preds = %23
  %27 = load ptr, ptr @debug, align 8
  %.not.i.i = icmp eq ptr %27, null
  br i1 %.not.i.i, label %_ZL9xtc_coordP3XDRPiPA3_fS3_Pfib.exit, label %28

28:                                               ; preds = %26
  %29 = call i32 (ptr, ptr, ...) @fprintf(ptr noundef nonnull %27, ptr noundef nonnull @.str.4, ptr noundef nonnull @.str.5, ptr noundef nonnull @.str.1, i32 noundef 150) #8
  br label %_ZL9xtc_coordP3XDRPiPA3_fS3_Pfib.exit

_ZL9xtc_checkPKcbS0_i.exit.i:                     ; preds = %23
  %indvars.iv.next.i = add nuw nsw i64 %indvars.iv.i, 1
  %exitcond.not = icmp eq i64 %indvars.iv.next.i, 3
  br i1 %exitcond.not, label %30, label %23, !llvm.loop !5

30:                                               ; preds = %_ZL9xtc_checkPKcbS0_i.exit.i
  %indvars.iv.next30.i = add nuw nsw i64 %indvars.iv29.i, 1
  %exitcond16.not = icmp eq i64 %indvars.iv.next30.i, 3
  br i1 %exitcond16.not, label %31, label %.preheader.i, !llvm.loop !7

31:                                               ; preds = %30
  %32 = call noundef i32 @_Z11xdr3dfcoordP3XDRPfPiS1_i(ptr noundef %11, ptr noundef %21, ptr noundef nonnull %1, ptr noundef %6, i32 noundef %22)
  %.not.i = icmp eq i32 %32, 0
  br i1 %.not.i, label %33, label %_ZL9xtc_coordP3XDRPiPA3_fS3_Pfib.exit

33:                                               ; preds = %31
  %34 = load ptr, ptr @debug, align 8
  %.not.i22.i = icmp eq ptr %34, null
  br i1 %.not.i22.i, label %_ZL9xtc_coordP3XDRPiPA3_fS3_Pfib.exit, label %35

35:                                               ; preds = %33
  %36 = call i32 (ptr, ptr, ...) @fprintf(ptr noundef nonnull %34, ptr noundef nonnull @.str.4, ptr noundef nonnull @.str.6, ptr noundef nonnull @.str.1, i32 noundef 189) #8
  br label %_ZL9xtc_coordP3XDRPiPA3_fS3_Pfib.exit

_ZL9xtc_coordP3XDRPiPA3_fS3_Pfib.exit:            ; preds = %26, %28, %31, %33, %35
  %.021.i = phi i32 [ 0, %35 ], [ 0, %33 ], [ 1, %31 ], [ 0, %26 ], [ 0, %28 ]
  %37 = trunc nuw nsw i32 %.021.i to i8
  store i8 %37, ptr %7, align 1
  br label %38

38:                                               ; preds = %8, %_ZL9xtc_coordP3XDRPiPA3_fS3_Pfib.exit
  %.0 = phi i32 [ %.021.i, %_ZL9xtc_coordP3XDRPiPA3_fS3_Pfib.exit ], [ 0, %8 ]
  ret i32 %.0
}